; Function Attrs: mustprogress null_pointer_is_valid sspstrong uwtable
define void @_ZN18Iax2AnalysisDialog26on_rJitterCheckBox_toggledEb(ptr noundef readonly align 8 captures(none) dereferenceable_or_null(10448) %0, i1 noundef zeroext %1) local_unnamed_addr #0 align 2 {
  %3 = getelementptr inbounds nuw i8, ptr %0, i64 144
  %4 = load ptr, ptr %3, align 8
  %5 = getelementptr inbounds nuw i8, ptr %4, i64 152
  %6 = load ptr, ptr %5, align 8
  %7 = tail call noundef ptr @_ZNK11QCustomPlot5graphEi(ptr noundef align 8 dereferenceable_or_null(513) %6, i32 noundef 2)
  tail call void @_ZN12QCPLayerable10setVisibleEb(ptr noundef align 8 dereferenceable_or_null(57) %7, i1 noundef zeroext %1)
  tail call void @_ZN18Iax2AnalysisDialog11updateGraphEv(ptr noundef align 8 dereferenceable_or_null(10448) %0)
  ret void
}